target datalayout = "e-m:e-p270:32:32-p271:32:32-p272:64:64-i64:64-i128:128-f80:128-n8:16:32:64-S128"
target triple = "x86_64-pc-linux-gnu"

%struct.quic_srtm_st = type { ptr, ptr, ptr, i8 }
%struct.srtm_item_st = type { ptr, ptr, ptr, i64, %struct.QUIC_STATELESS_RESET_TOKEN, [16 x i8] }
%struct.QUIC_STATELESS_RESET_TOKEN = type { [16 x i8] }

@.str = private unnamed_addr constant [32 x i8] c"../openssl/ssl/quic/quic_srtm.c\00", align 1

; Function Attrs: inlinehint nounwind uwtable
define internal i32 @lh_SRTM_ITEM_error(ptr noundef %0) #3 {
  %2 = alloca ptr, align 8
  store ptr %0, ptr %2, align 8, !tbaa !29
  %3 = load ptr, ptr %2, align 8, !tbaa !29
  %4 = call i32 @OPENSSL_LH_error(ptr noundef %3)
  ret i32 %4
}

; Function Attrs: nounwind uwtable
define internal i32 @srtm_check_lh(ptr noundef %0, ptr noundef %1) #0 {
  %3 = alloca i32, align 4
  %4 = alloca ptr, align 8
  %5 = alloca ptr, align 8
  store ptr %0, ptr %4, align 8, !tbaa !10
  store ptr %1, ptr %5, align 8, !tbaa !29
  %6 = load ptr, ptr %5, align 8, !tbaa !29
  %7 = call i32 @lh_SRTM_ITEM_error(ptr noundef %6)
  %8 = icmp ne i32 %7, 0
  br i1 %8, label %9, label %15

9:                                                ; preds = %2
  %10 = load ptr, ptr %4, align 8, !tbaa !10
  %11 = getelementptr inbounds nuw %struct.quic_srtm_st, ptr %10, i32 0, i32 3
  %12 = load i8, ptr %11, align 8
  %13 = and i8 %12, -2
  %14 = or i8 %13, 1
  store i8 %14, ptr %11, align 8
  store i32 0, ptr %3, align 4
  br label %16

15:                                               ; preds = %2
  store i32 1, ptr %3, align 4
  br label %16

16:                                               ; preds = %15, %9
  %17 = load i32, ptr %3, align 4
  ret i32 %17
}

; Function Attrs: inlinehint nounwind uwtable
define internal ptr @lh_SRTM_ITEM_insert(ptr noundef %0, ptr noundef %1) #3 {
  %3 = alloca ptr, align 8
  %4 = alloca ptr, align 8
  store ptr %0, ptr %3, align 8, !tbaa !29
  store ptr %1, ptr %4, align 8, !tbaa !22
  %5 = load ptr, ptr %3, align 8, !tbaa !29
  %6 = load ptr, ptr %4, align 8, !tbaa !22
  %7 = call ptr @OPENSSL_LH_insert(ptr noundef %5, ptr noundef %6)
  ret ptr %7
}

; Function Attrs: inlinehint nounwind uwtable
define internal ptr @lh_SRTM_ITEM_delete(ptr noundef %0, ptr noundef %1) #3 {
  %3 = alloca ptr, align 8
  %4 = alloca ptr, align 8
  store ptr %0, ptr %3, align 8, !tbaa !29
  store ptr %1, ptr %4, align 8, !tbaa !22
  %5 = load ptr, ptr %3, align 8, !tbaa !29
  %6 = load ptr, ptr %4, align 8, !tbaa !22
  %7 = call ptr @OPENSSL_LH_delete(ptr noundef %5, ptr noundef %6)
  ret ptr %7
}

; Function Attrs: nounwind uwtable
define internal i32 @srtm_remove_from_rev(ptr noundef %0, ptr noundef %1) #0 {
  %3 = alloca i32, align 4
  %4 = alloca ptr, align 8
  %5 = alloca ptr, align 8
  %6 = alloca ptr, align 8
  %7 = alloca i32, align 4
  store ptr %0, ptr %4, align 8, !tbaa !10
  store ptr %1, ptr %5, align 8, !tbaa !22
  call void @llvm.lifetime.start.p0(i64 8, ptr %6) #7
  %8 = load ptr, ptr %4, align 8, !tbaa !10
  %9 = getelementptr inbounds nuw %struct.quic_srtm_st, ptr %8, i32 0, i32 2
  %10 = load ptr, ptr %9, align 8, !tbaa !20
  %11 = load ptr, ptr %5, align 8, !tbaa !22
  %12 = call ptr @lh_SRTM_ITEM_retrieve(ptr noundef %10, ptr noundef %11)
  store ptr %12, ptr %6, align 8, !tbaa !22
  %13 = load ptr, ptr %6, align 8, !tbaa !22
  %14 = load ptr, ptr %5, align 8, !tbaa !22
  %15 = icmp eq ptr %13, %14
  br i1 %15, label %16, label %44

16:                                               ; preds = %2
  %17 = load ptr, ptr %5, align 8, !tbaa !22
  %18 = getelementptr inbounds nuw %struct.srtm_item_st, ptr %17, i32 0, i32 0
  %19 = load ptr, ptr %18, align 8, !tbaa !41
  %20 = icmp ne ptr %19, null
  br i1 %20, label %21, label %37

21:                                               ; preds = %16
  %22 = load ptr, ptr %4, align 8, !tbaa !10
  %23 = getelementptr inbounds nuw %struct.quic_srtm_st, ptr %22, i32 0, i32 2
  %24 = load ptr, ptr %23, align 8, !tbaa !20
  %25 = load ptr, ptr %5, align 8, !tbaa !22
  %26 = getelementptr inbounds nuw %struct.srtm_item_st, ptr %25, i32 0, i32 0
  %27 = load ptr, ptr %26, align 8, !tbaa !41
  %28 = call ptr @lh_SRTM_ITEM_insert(ptr noundef %24, ptr noundef %27)
  %29 = load ptr, ptr %4, align 8, !tbaa !10
  %30 = load ptr, ptr %4, align 8, !tbaa !10
  %31 = getelementptr inbounds nuw %struct.quic_srtm_st, ptr %30, i32 0, i32 2
  %32 = load ptr, ptr %31, align 8, !tbaa !20
  %33 = call i32 @srtm_check_lh(ptr noundef %29, ptr noundef %32)
  %34 = icmp ne i32 %33, 0
  br i1 %34, label %36, label %35

35:                                               ; preds = %21
  store i32 0, ptr %3, align 4
  store i32 1, ptr %7, align 4
  br label %63

36:                                               ; preds = %21
  br label %43

37:                                               ; preds = %16
  %38 = load ptr, ptr %4, align 8, !tbaa !10
  %39 = getelementptr inbounds nuw %struct.quic_srtm_st, ptr %38, i32 0, i32 2
  %40 = load ptr, ptr %39, align 8, !tbaa !20
  %41 = load ptr, ptr %5, align 8, !tbaa !22
  %42 = call ptr @lh_SRTM_ITEM_delete(ptr noundef %40, ptr noundef %41)
  br label %43

43:                                               ; preds = %37, %36
  br label %62

44:                                               ; preds = %2
  br label %45

45:                                               ; preds = %52, %44
  %46 = load ptr, ptr %6, align 8, !tbaa !22
  %47 = getelementptr inbounds nuw %struct.srtm_item_st, ptr %46, i32 0, i32 0
  %48 = load ptr, ptr %47, align 8, !tbaa !41
  %49 = load ptr, ptr %5, align 8, !tbaa !22
  %50 = icmp ne ptr %48, %49
  br i1 %50, label %51, label %56

51:                                               ; preds = %45
  br label %52

52:                                               ; preds = %51
  %53 = load ptr, ptr %6, align 8, !tbaa !22
  %54 = getelementptr inbounds nuw %struct.srtm_item_st, ptr %53, i32 0, i32 0
  %55 = load ptr, ptr %54, align 8, !tbaa !41
  store ptr %55, ptr %6, align 8, !tbaa !22
  br label %45, !llvm.loop !43

56:                                               ; preds = %45
  %57 = load ptr, ptr %5, align 8, !tbaa !22
  %58 = getelementptr inbounds nuw %struct.srtm_item_st, ptr %57, i32 0, i32 0
  %59 = load ptr, ptr %58, align 8, !tbaa !41
  %60 = load ptr, ptr %6, align 8, !tbaa !22
  %61 = getelementptr inbounds nuw %struct.srtm_item_st, ptr %60, i32 0, i32 0
  store ptr %59, ptr %61, align 8, !tbaa !41
  br label %62

62:                                               ; preds = %56, %43
  store i32 1, ptr %3, align 4
  store i32 1, ptr %7, align 4
  br label %63

63:                                               ; preds = %62, %35
  call void @llvm.lifetime.end.p0(i64 8, ptr %6) #7
  %64 = load i32, ptr %3, align 4
  ret i32 %64
}

; Function Attrs: inlinehint nounwind uwtable
define internal ptr @lh_SRTM_ITEM_retrieve(ptr noundef %0, ptr noundef %1) #3 {
  %3 = alloca ptr, align 8
  %4 = alloca ptr, align 8
  store ptr %0, ptr %3, align 8, !tbaa !29
  store ptr %1, ptr %4, align 8, !tbaa !22
  %5 = load ptr, ptr %3, align 8, !tbaa !29
  %6 = load ptr, ptr %4, align 8, !tbaa !22
  %7 = call ptr @OPENSSL_LH_retrieve(ptr noundef %5, ptr noundef %6)
  ret ptr %7
}

; Function Attrs: nounwind uwtable
define i32 @ossl_quic_srtm_cull(ptr noundef %0, ptr noundef %1) #0 {
  %3 = alloca i32, align 4
  %4 = alloca ptr, align 8
  %5 = alloca ptr, align 8
  %6 = alloca %struct.srtm_item_st, align 8
  %7 = alloca ptr, align 8
  %8 = alloca ptr, align 8
  %9 = alloca ptr, align 8
  %10 = alloca i32, align 4
  store ptr %0, ptr %4, align 8, !tbaa !10
  store ptr %1, ptr %5, align 8, !tbaa !21
  call void @llvm.lifetime.start.p0(i64 64, ptr %6) #7
  call void @llvm.lifetime.start.p0(i64 8, ptr %7) #7
  store ptr null, ptr %7, align 8, !tbaa !22
  call void @llvm.lifetime.start.p0(i64 8, ptr %8) #7
  call void @llvm.lifetime.start.p0(i64 8, ptr %9) #7
  %11 = load ptr, ptr %5, align 8, !tbaa !21
  %12 = getelementptr inbounds nuw %struct.srtm_item_st, ptr %6, i32 0, i32 2
  store ptr %11, ptr %12, align 8, !tbaa !24
  %13 = load ptr, ptr %4, align 8, !tbaa !10
  %14 = getelementptr inbounds nuw %struct.quic_srtm_st, ptr %13, i32 0, i32 3
  %15 = load i8, ptr %14, align 8
  %16 = and i8 %15, 1
  %17 = zext i8 %16 to i32
  %18 = icmp ne i32 %17, 0
  br i1 %18, label %19, label %20

19:                                               ; preds = %2
  store i32 0, ptr %3, align 4
  store i32 1, ptr %10, align 4
  br label %57

20:                                               ; preds = %2
  %21 = load ptr, ptr %4, align 8, !tbaa !10
  %22 = getelementptr inbounds nuw %struct.quic_srtm_st, ptr %21, i32 0, i32 1
  %23 = load ptr, ptr %22, align 8, !tbaa !19
  %24 = call ptr @lh_SRTM_ITEM_retrieve(ptr noundef %23, ptr noundef %6)
  store ptr %24, ptr %9, align 8, !tbaa !22
  %25 = icmp eq ptr %24, null
  br i1 %25, label %26, label %27

26:                                               ; preds = %20
  store i32 1, ptr %3, align 4
  store i32 1, ptr %10, align 4
  br label %57

27:                                               ; preds = %20
  %28 = load ptr, ptr %9, align 8, !tbaa !22
  store ptr %28, ptr %7, align 8, !tbaa !22
  br label %29

29:                                               ; preds = %45, %27
  %30 = load ptr, ptr %7, align 8, !tbaa !22
  %31 = icmp ne ptr %30, null
  br i1 %31, label %32, label %47

32:                                               ; preds = %29
  %33 = load ptr, ptr %7, align 8, !tbaa !22
  %34 = getelementptr inbounds nuw %struct.srtm_item_st, ptr %33, i32 0, i32 1
  %35 = load ptr, ptr %34, align 8, !tbaa !30
  store ptr %35, ptr %8, align 8, !tbaa !22
  %36 = load ptr, ptr %7, align 8, !tbaa !22
  %37 = load ptr, ptr %9, align 8, !tbaa !22
  %38 = icmp ne ptr %36, %37
  br i1 %38, label %39, label %44

39:                                               ; preds = %32
  %40 = load ptr, ptr %4, align 8, !tbaa !10
  %41 = load ptr, ptr %7, align 8, !tbaa !22
  %42 = call i32 @srtm_remove_from_rev(ptr noundef %40, ptr noundef %41)
  %43 = load ptr, ptr %7, align 8, !tbaa !22
  call void @CRYPTO_free(ptr noundef %43, ptr noundef @.str, i32 noundef 431)
  br label %44

44:                                               ; preds = %39, %32
  br label %45

45:                                               ; preds = %44
  %46 = load ptr, ptr %8, align 8, !tbaa !22
  store ptr %46, ptr %7, align 8, !tbaa !22
  br label %29, !llvm.loop !44

47:                                               ; preds = %29
  %48 = load ptr, ptr %4, align 8, !tbaa !10
  %49 = getelementptr inbounds nuw %struct.quic_srtm_st, ptr %48, i32 0, i32 1
  %50 = load ptr, ptr %49, align 8, !tbaa !19
  %51 = load ptr, ptr %9, align 8, !tbaa !22
  %52 = call ptr @lh_SRTM_ITEM_delete(ptr noundef %50, ptr noundef %51)
  %53 = load ptr, ptr %4, align 8, !tbaa !10
  %54 = load ptr, ptr %9, align 8, !tbaa !22
  %55 = call i32 @srtm_remove_from_rev(ptr noundef %53, ptr noundef %54)
  %56 = load ptr, ptr %9, align 8, !tbaa !22
  call void @CRYPTO_free(ptr noundef %56, ptr noundef @.str, i32 noundef 437)
  store i32 1, ptr %3, align 4
  store i32 1, ptr %10, align 4
  br label %57

57:                                               ; preds = %47, %26, %19
  call void @llvm.lifetime.end.p0(i64 8, ptr %9) #7
  call void @llvm.lifetime.end.p0(i64 8, ptr %8) #7
  call void @llvm.lifetime.end.p0(i64 8, ptr %7) #7
  call void @llvm.lifetime.end.p0(i64 64, ptr %6) #7
  %58 = load i32, ptr %3, align 4
  ret i32 %58
}