; Function Attrs: nounwind uwtable
define range(i32 0, 2) i32 @ossl_quic_srtm_cull(ptr noundef captures(none) %0, ptr noundef %1) local_unnamed_addr #0 {
  %3 = alloca %struct.srtm_item_st, align 8
  call void @llvm.lifetime.start.p0(i64 64, ptr nonnull %3) #9
  %4 = getelementptr inbounds nuw i8, ptr %3, i64 16
  store ptr %1, ptr %4, align 8, !tbaa !13
  %5 = getelementptr inbounds nuw i8, ptr %0, i64 24
  %6 = load i8, ptr %5, align 8
  %7 = and i8 %6, 1
  %.not = icmp eq i8 %7, 0
  br i1 %.not, label %8, label %56

8:                                                ; preds = %2
  %9 = getelementptr inbounds nuw i8, ptr %0, i64 8
  %10 = load ptr, ptr %9, align 8, !tbaa !11
  %11 = call ptr @OPENSSL_LH_retrieve(ptr noundef %10, ptr noundef nonnull %3) #9
  %12 = icmp eq ptr %11, null
  br i1 %12, label %56, label %.preheader

.preheader:                                       ; preds = %8
  %13 = getelementptr inbounds nuw i8, ptr %0, i64 16
  br label %14

14:                                               ; preds = %.preheader, %35
  %.01729 = phi ptr [ %11, %.preheader ], [ %16, %35 ]
  %15 = getelementptr inbounds nuw i8, ptr %.01729, i64 8
  %16 = load ptr, ptr %15, align 8, !tbaa !18
  %.not20 = icmp eq ptr %.01729, %11
  br i1 %.not20, label %35, label %17

17:                                               ; preds = %14
  %18 = load ptr, ptr %13, align 8, !tbaa !12
  %19 = call ptr @OPENSSL_LH_retrieve(ptr noundef %18, ptr noundef nonnull %.01729) #9
  %20 = icmp eq ptr %19, %.01729
  br i1 %20, label %21, label %.preheader.i

21:                                               ; preds = %17
  %22 = load ptr, ptr %.01729, align 8, !tbaa !29
  %.not21.i = icmp eq ptr %22, null
  %23 = load ptr, ptr %13, align 8, !tbaa !12
  br i1 %.not21.i, label %30, label %24

24:                                               ; preds = %21
  %25 = call ptr @OPENSSL_LH_insert(ptr noundef %23, ptr noundef nonnull %22) #9
  %26 = load ptr, ptr %13, align 8, !tbaa !12
  %27 = call i32 @OPENSSL_LH_error(ptr noundef %26) #9
  %.not.i.i = icmp eq i32 %27, 0
  br i1 %.not.i.i, label %srtm_remove_from_rev.exit, label %srtm_check_lh.exit.thread.i

srtm_check_lh.exit.thread.i:                      ; preds = %24
  %28 = load i8, ptr %5, align 8
  %29 = or i8 %28, 1
  store i8 %29, ptr %5, align 8
  br label %srtm_remove_from_rev.exit

30:                                               ; preds = %21
  %31 = call ptr @OPENSSL_LH_delete(ptr noundef %23, ptr noundef nonnull %.01729) #9
  br label %srtm_remove_from_rev.exit

.preheader.i:                                     ; preds = %17, %.preheader.i
  %.0.i = phi ptr [ %32, %.preheader.i ], [ %19, %17 ]
  %32 = load ptr, ptr %.0.i, align 8, !tbaa !29
  %.not.i = icmp eq ptr %32, %.01729
  br i1 %.not.i, label %33, label %.preheader.i, !llvm.loop !30

33:                                               ; preds = %.preheader.i
  %34 = load ptr, ptr %.01729, align 8, !tbaa !29
  store ptr %34, ptr %.0.i, align 8, !tbaa !29
  br label %srtm_remove_from_rev.exit

srtm_remove_from_rev.exit:                        ; preds = %24, %srtm_check_lh.exit.thread.i, %30, %33
  call void @CRYPTO_free(ptr noundef nonnull %.01729, ptr noundef nonnull @.str, i32 noundef 431) #9
  br label %35

35:                                               ; preds = %14, %srtm_remove_from_rev.exit
  %.not19 = icmp eq ptr %16, null
  br i1 %.not19, label %36, label %14, !llvm.loop !31

36:                                               ; preds = %35
  %37 = load ptr, ptr %9, align 8, !tbaa !11
  %38 = call ptr @OPENSSL_LH_delete(ptr noundef %37, ptr noundef nonnull %11) #9
  %39 = load ptr, ptr %13, align 8, !tbaa !12
  %40 = call ptr @OPENSSL_LH_retrieve(ptr noundef %39, ptr noundef nonnull %11) #9
  %41 = icmp eq ptr %40, %11
  br i1 %41, label %42, label %.preheader.i21

42:                                               ; preds = %36
  %43 = load ptr, ptr %11, align 8, !tbaa !29
  %.not21.i25 = icmp eq ptr %43, null
  %44 = load ptr, ptr %13, align 8, !tbaa !12
  br i1 %.not21.i25, label %51, label %45

45:                                               ; preds = %42
  %46 = call ptr @OPENSSL_LH_insert(ptr noundef %44, ptr noundef nonnull %43) #9
  %47 = load ptr, ptr %13, align 8, !tbaa !12
  %48 = call i32 @OPENSSL_LH_error(ptr noundef %47) #9
  %.not.i.i26 = icmp eq i32 %48, 0
  br i1 %.not.i.i26, label %srtm_remove_from_rev.exit28, label %srtm_check_lh.exit.thread.i27

srtm_check_lh.exit.thread.i27:                    ; preds = %45
  %49 = load i8, ptr %5, align 8
  %50 = or i8 %49, 1
  store i8 %50, ptr %5, align 8
  br label %srtm_remove_from_rev.exit28

51:                                               ; preds = %42
  %52 = call ptr @OPENSSL_LH_delete(ptr noundef %44, ptr noundef nonnull %11) #9
  br label %srtm_remove_from_rev.exit28

.preheader.i21:                                   ; preds = %36, %.preheader.i21
  %.0.i22 = phi ptr [ %53, %.preheader.i21 ], [ %40, %36 ]
  %53 = load ptr, ptr %.0.i22, align 8, !tbaa !29
  %.not.i23 = icmp eq ptr %53, %11
  br i1 %.not.i23, label %54, label %.preheader.i21, !llvm.loop !30

54:                                               ; preds = %.preheader.i21
  %55 = load ptr, ptr %11, align 8, !tbaa !29
  store ptr %55, ptr %.0.i22, align 8, !tbaa !29
  br label %srtm_remove_from_rev.exit28

srtm_remove_from_rev.exit28:                      ; preds = %45, %srtm_check_lh.exit.thread.i27, %51, %54
  call void @CRYPTO_free(ptr noundef nonnull %11, ptr noundef nonnull @.str, i32 noundef 437) #9
  br label %56

56:                                               ; preds = %8, %2, %srtm_remove_from_rev.exit28
  %.0 = phi i32 [ 1, %srtm_remove_from_rev.exit28 ], [ 0, %2 ], [ 1, %8 ]
  call void @llvm.lifetime.end.p0(i64 64, ptr nonnull %3) #9
  ret i32 %.0
}